target datalayout = "e-m:e-p270:32:32-p271:32:32-p272:64:64-i64:64-i128:128-f80:128-n8:16:32:64-S128"
target triple = "x86_64-pc-linux-gnu"

%struct.expert_field = type { i32, i32 }
%struct.mbim_conv_info = type { ptr, ptr, i32, i32, i32 }

@hf_mbim_registration_state_info_nw_error = internal global i32 0, align 4
@hf_mbim_registration_state_info_register_state = internal global i32 0, align 4
@hf_mbim_registration_state_info_register_mode = internal global i32 0, align 4
@hf_mbim_registration_state_info_available_data_classes = internal global i32 0, align 4
@hf_mbim_registration_state_info_current_cellular_class = internal global i32 0, align 4
@hf_mbim_registration_state_info_provider_id_offset = internal global i32 0, align 4
@hf_mbim_registration_state_info_provider_id_size = internal global i32 0, align 4
@hf_mbim_registration_state_info_provider_name_offset = internal global i32 0, align 4
@hf_mbim_registration_state_info_provider_name_size = internal global i32 0, align 4
@hf_mbim_registration_state_info_roaming_text_offset = internal global i32 0, align 4
@hf_mbim_registration_state_info_roaming_text_size = internal global i32 0, align 4
@hf_mbim_registration_state_info_registration_flags = internal global i32 0, align 4
@hf_mbim_registration_state_info_preferred_data_class = internal global i32 0, align 4
@hf_mbim_registration_state_info_provider_id = internal global i32 0, align 4
@hf_mbim_registration_state_info_provider_name = internal global i32 0, align 4
@hf_mbim_registration_state_info_roaming_text = internal global i32 0, align 4
@ett_mbim_bitmap = internal global i32 0, align 4
@ei_mbim_oversized_string = internal global %struct.expert_field zeroinitializer, align 4
@preferred_mbim_extended_version = internal global i32 1, align 4
@.str.2501 = private unnamed_addr constant [12 x i8] c"Success (0)\00", align 1
@mbim_registration_state_info_registration_flags_fields = internal constant [3 x ptr] [ptr @hf_mbim_registration_state_info_registration_flags_manual_selection_not_available, ptr @hf_mbim_registration_state_info_registration_flags_packet_service_auto_attach, ptr null], align 16

; Function Attrs: nounwind uwtable
define internal void @mbim_dissect_registration_state_info(ptr noundef %0, ptr noundef %1, ptr noundef %2, i32 noundef %3, ptr noundef %4) #0 {
  %6 = alloca ptr, align 8
  %7 = alloca ptr, align 8
  %8 = alloca ptr, align 8
  %9 = alloca i32, align 4
  %10 = alloca ptr, align 8
  %11 = alloca i32, align 4
  %12 = alloca i32, align 4
  %13 = alloca i32, align 4
  %14 = alloca i32, align 4
  %15 = alloca i32, align 4
  %16 = alloca i32, align 4
  %17 = alloca i32, align 4
  %18 = alloca i32, align 4
  %19 = alloca ptr, align 8
  store ptr %0, ptr %6, align 8
  store ptr %1, ptr %7, align 8
  store ptr %2, ptr %8, align 8
  store i32 %3, ptr %9, align 4
  store ptr %4, ptr %10, align 8
  %20 = load i32, ptr %9, align 4
  store i32 %20, ptr %11, align 4
  %21 = load ptr, ptr %6, align 8
  %22 = load i32, ptr %9, align 4
  %23 = call i32 @tvb_get_letohl(ptr noundef %21, i32 noundef %22)
  store i32 %23, ptr %18, align 4
  %24 = load i32, ptr %18, align 4
  %25 = icmp eq i32 %24, 0
  br i1 %25, label %26, label %33

26:                                               ; preds = %5
  %27 = load ptr, ptr %8, align 8
  %28 = load i32, ptr @hf_mbim_registration_state_info_nw_error, align 4
  %29 = load ptr, ptr %6, align 8
  %30 = load i32, ptr %9, align 4
  %31 = load i32, ptr %18, align 4
  %32 = call ptr (ptr, i32, ptr, i32, i32, i32, ptr, ...) @proto_tree_add_uint_format_value(ptr noundef %27, i32 noundef %28, ptr noundef %29, i32 noundef %30, i32 noundef 4, i32 noundef %31, ptr noundef @.str.2501)
  br label %40

33:                                               ; preds = %5
  %34 = load ptr, ptr %8, align 8
  %35 = load i32, ptr @hf_mbim_registration_state_info_nw_error, align 4
  %36 = load ptr, ptr %6, align 8
  %37 = load i32, ptr %9, align 4
  %38 = load i32, ptr %18, align 4
  %39 = call ptr @proto_tree_add_uint(ptr noundef %34, i32 noundef %35, ptr noundef %36, i32 noundef %37, i32 noundef 4, i32 noundef %38)
  br label %40

40:                                               ; preds = %33, %26
  %41 = load i32, ptr %9, align 4
  %42 = add i32 %41, 4
  store i32 %42, ptr %9, align 4
  %43 = load ptr, ptr %8, align 8
  %44 = load i32, ptr @hf_mbim_registration_state_info_register_state, align 4
  %45 = load ptr, ptr %6, align 8
  %46 = load i32, ptr %9, align 4
  %47 = call ptr @proto_tree_add_item(ptr noundef %43, i32 noundef %44, ptr noundef %45, i32 noundef %46, i32 noundef 4, i32 noundef -2147483648)
  %48 = load i32, ptr %9, align 4
  %49 = add i32 %48, 4
  store i32 %49, ptr %9, align 4
  %50 = load ptr, ptr %8, align 8
  %51 = load i32, ptr @hf_mbim_registration_state_info_register_mode, align 4
  %52 = load ptr, ptr %6, align 8
  %53 = load i32, ptr %9, align 4
  %54 = call ptr @proto_tree_add_item(ptr noundef %50, i32 noundef %51, ptr noundef %52, i32 noundef %53, i32 noundef 4, i32 noundef -2147483648)
  %55 = load i32, ptr %9, align 4
  %56 = add i32 %55, 4
  store i32 %56, ptr %9, align 4
  %57 = load ptr, ptr %8, align 8
  %58 = load ptr, ptr %6, align 8
  %59 = load i32, ptr %9, align 4
  %60 = load i32, ptr @hf_mbim_registration_state_info_available_data_classes, align 4
  %61 = load i32, ptr @ett_mbim_bitmap, align 4
  %62 = call ptr @proto_tree_add_bitmask(ptr noundef %57, ptr noundef %58, i32 noundef %59, i32 noundef %60, i32 noundef %61, ptr noundef @mbim_data_class_fields, i32 noundef -2147483648)
  %63 = load i32, ptr %9, align 4
  %64 = add i32 %63, 4
  store i32 %64, ptr %9, align 4
  %65 = load ptr, ptr %8, align 8
  %66 = load i32, ptr @hf_mbim_registration_state_info_current_cellular_class, align 4
  %67 = load ptr, ptr %6, align 8
  %68 = load i32, ptr %9, align 4
  %69 = call ptr @proto_tree_add_item(ptr noundef %65, i32 noundef %66, ptr noundef %67, i32 noundef %68, i32 noundef 4, i32 noundef -2147483648)
  %70 = load i32, ptr %9, align 4
  %71 = add i32 %70, 4
  store i32 %71, ptr %9, align 4
  %72 = load ptr, ptr %8, align 8
  %73 = load i32, ptr @hf_mbim_registration_state_info_provider_id_offset, align 4
  %74 = load ptr, ptr %6, align 8
  %75 = load i32, ptr %9, align 4
  %76 = call ptr @proto_tree_add_item_ret_uint(ptr noundef %72, i32 noundef %73, ptr noundef %74, i32 noundef %75, i32 noundef 4, i32 noundef -2147483648, ptr noundef %12)
  %77 = load i32, ptr %9, align 4
  %78 = add i32 %77, 4
  store i32 %78, ptr %9, align 4
  %79 = load ptr, ptr %8, align 8
  %80 = load i32, ptr @hf_mbim_registration_state_info_provider_id_size, align 4
  %81 = load ptr, ptr %6, align 8
  %82 = load i32, ptr %9, align 4
  %83 = call ptr @proto_tree_add_item_ret_uint(ptr noundef %79, i32 noundef %80, ptr noundef %81, i32 noundef %82, i32 noundef 4, i32 noundef -2147483648, ptr noundef %13)
  %84 = load i32, ptr %9, align 4
  %85 = add i32 %84, 4
  store i32 %85, ptr %9, align 4
  %86 = load ptr, ptr %8, align 8
  %87 = load i32, ptr @hf_mbim_registration_state_info_provider_name_offset, align 4
  %88 = load ptr, ptr %6, align 8
  %89 = load i32, ptr %9, align 4
  %90 = call ptr @proto_tree_add_item_ret_uint(ptr noundef %86, i32 noundef %87, ptr noundef %88, i32 noundef %89, i32 noundef 4, i32 noundef -2147483648, ptr noundef %14)
  %91 = load i32, ptr %9, align 4
  %92 = add i32 %91, 4
  store i32 %92, ptr %9, align 4
  %93 = load ptr, ptr %8, align 8
  %94 = load i32, ptr @hf_mbim_registration_state_info_provider_name_size, align 4
  %95 = load ptr, ptr %6, align 8
  %96 = load i32, ptr %9, align 4
  %97 = call ptr @proto_tree_add_item_ret_uint(ptr noundef %93, i32 noundef %94, ptr noundef %95, i32 noundef %96, i32 noundef 4, i32 noundef -2147483648, ptr noundef %15)
  %98 = load i32, ptr %9, align 4
  %99 = add i32 %98, 4
  store i32 %99, ptr %9, align 4
  %100 = load ptr, ptr %8, align 8
  %101 = load i32, ptr @hf_mbim_registration_state_info_roaming_text_offset, align 4
  %102 = load ptr, ptr %6, align 8
  %103 = load i32, ptr %9, align 4
  %104 = call ptr @proto_tree_add_item_ret_uint(ptr noundef %100, i32 noundef %101, ptr noundef %102, i32 noundef %103, i32 noundef 4, i32 noundef -2147483648, ptr noundef %16)
  %105 = load i32, ptr %9, align 4
  %106 = add i32 %105, 4
  store i32 %106, ptr %9, align 4
  %107 = load ptr, ptr %8, align 8
  %108 = load i32, ptr @hf_mbim_registration_state_info_roaming_text_size, align 4
  %109 = load ptr, ptr %6, align 8
  %110 = load i32, ptr %9, align 4
  %111 = call ptr @proto_tree_add_item_ret_uint(ptr noundef %107, i32 noundef %108, ptr noundef %109, i32 noundef %110, i32 noundef 4, i32 noundef -2147483648, ptr noundef %17)
  %112 = load i32, ptr %9, align 4
  %113 = add i32 %112, 4
  store i32 %113, ptr %9, align 4
  %114 = load ptr, ptr %8, align 8
  %115 = load ptr, ptr %6, align 8
  %116 = load i32, ptr %9, align 4
  %117 = load i32, ptr @hf_mbim_registration_state_info_registration_flags, align 4
  %118 = load i32, ptr @ett_mbim_bitmap, align 4
  %119 = call ptr @proto_tree_add_bitmask(ptr noundef %114, ptr noundef %115, i32 noundef %116, i32 noundef %117, i32 noundef %118, ptr noundef @mbim_registration_state_info_registration_flags_fields, i32 noundef -2147483648)
  %120 = load ptr, ptr %10, align 8
  %121 = getelementptr inbounds %struct.mbim_conv_info, ptr %120, i32 0, i32 4
  %122 = load i32, ptr %121, align 8
  %123 = icmp uge i32 %122, 2
  br i1 %123, label %132, label %124

124:                                              ; preds = %40
  %125 = load ptr, ptr %10, align 8
  %126 = getelementptr inbounds %struct.mbim_conv_info, ptr %125, i32 0, i32 4
  %127 = load i32, ptr %126, align 8
  %128 = icmp eq i32 %127, 0
  br i1 %128, label %129, label %133

129:                                              ; preds = %124
  %130 = load i32, ptr @preferred_mbim_extended_version, align 4
  %131 = icmp sge i32 %130, 2
  br i1 %131, label %132, label %133

132:                                              ; preds = %129, %40
  br i1 true, label %134, label %143

133:                                              ; preds = %129, %124
  br i1 false, label %134, label %143

134:                                              ; preds = %133, %132
  %135 = load i32, ptr %9, align 4
  %136 = add i32 %135, 4
  store i32 %136, ptr %9, align 4
  %137 = load ptr, ptr %8, align 8
  %138 = load ptr, ptr %6, align 8
  %139 = load i32, ptr %9, align 4
  %140 = load i32, ptr @hf_mbim_registration_state_info_preferred_data_class, align 4
  %141 = load i32, ptr @ett_mbim_bitmap, align 4
  %142 = call ptr @proto_tree_add_bitmask(ptr noundef %137, ptr noundef %138, i32 noundef %139, i32 noundef %140, i32 noundef %141, ptr noundef @mbim_data_class_fields, i32 noundef -2147483648)
  br label %143

143:                                              ; preds = %134, %133, %132
  %144 = load i32, ptr %12, align 4
  %145 = icmp ne i32 %144, 0
  br i1 %145, label %146, label %165

146:                                              ; preds = %143
  %147 = load i32, ptr %13, align 4
  %148 = icmp ne i32 %147, 0
  br i1 %148, label %149, label %165

149:                                              ; preds = %146
  %150 = load ptr, ptr %8, align 8
  %151 = load i32, ptr @hf_mbim_registration_state_info_provider_id, align 4
  %152 = load ptr, ptr %6, align 8
  %153 = load i32, ptr %11, align 4
  %154 = load i32, ptr %12, align 4
  %155 = add i32 %153, %154
  %156 = load i32, ptr %13, align 4
  %157 = call ptr @proto_tree_add_item(ptr noundef %150, i32 noundef %151, ptr noundef %152, i32 noundef %155, i32 noundef %156, i32 noundef -2147483644)
  store ptr %157, ptr %19, align 8
  %158 = load i32, ptr %13, align 4
  %159 = icmp ugt i32 %158, 12
  br i1 %159, label %160, label %164

160:                                              ; preds = %149
  %161 = load ptr, ptr %7, align 8
  %162 = load ptr, ptr %19, align 8
  %163 = call ptr @expert_add_info(ptr noundef %161, ptr noundef %162, ptr noundef @ei_mbim_oversized_string)
  br label %164

164:                                              ; preds = %160, %149
  br label %165

165:                                              ; preds = %164, %146, %143
  %166 = load i32, ptr %14, align 4
  %167 = icmp ne i32 %166, 0
  br i1 %167, label %168, label %187

168:                                              ; preds = %165
  %169 = load i32, ptr %15, align 4
  %170 = icmp ne i32 %169, 0
  br i1 %170, label %171, label %187

171:                                              ; preds = %168
  %172 = load ptr, ptr %8, align 8
  %173 = load i32, ptr @hf_mbim_registration_state_info_provider_name, align 4
  %174 = load ptr, ptr %6, align 8
  %175 = load i32, ptr %11, align 4
  %176 = load i32, ptr %14, align 4
  %177 = add i32 %175, %176
  %178 = load i32, ptr %15, align 4
  %179 = call ptr @proto_tree_add_item(ptr noundef %172, i32 noundef %173, ptr noundef %174, i32 noundef %177, i32 noundef %178, i32 noundef -2147483644)
  store ptr %179, ptr %19, align 8
  %180 = load i32, ptr %15, align 4
  %181 = icmp ugt i32 %180, 40
  br i1 %181, label %182, label %186

182:                                              ; preds = %171
  %183 = load ptr, ptr %7, align 8
  %184 = load ptr, ptr %19, align 8
  %185 = call ptr @expert_add_info(ptr noundef %183, ptr noundef %184, ptr noundef @ei_mbim_oversized_string)
  br label %186

186:                                              ; preds = %182, %171
  br label %187

187:                                              ; preds = %186, %168, %165
  %188 = load i32, ptr %16, align 4
  %189 = icmp ne i32 %188, 0
  br i1 %189, label %190, label %209

190:                                              ; preds = %187
  %191 = load i32, ptr %17, align 4
  %192 = icmp ne i32 %191, 0
  br i1 %192, label %193, label %209

193:                                              ; preds = %190
  %194 = load ptr, ptr %8, align 8
  %195 = load i32, ptr @hf_mbim_registration_state_info_roaming_text, align 4
  %196 = load ptr, ptr %6, align 8
  %197 = load i32, ptr %11, align 4
  %198 = load i32, ptr %16, align 4
  %199 = add i32 %197, %198
  %200 = load i32, ptr %17, align 4
  %201 = call ptr @proto_tree_add_item(ptr noundef %194, i32 noundef %195, ptr noundef %196, i32 noundef %199, i32 noundef %200, i32 noundef -2147483644)
  store ptr %201, ptr %19, align 8
  %202 = load i32, ptr %17, align 4
  %203 = icmp ugt i32 %202, 126
  br i1 %203, label %204, label %208

204:                                              ; preds = %193
  %205 = load ptr, ptr %7, align 8
  %206 = load ptr, ptr %19, align 8
  %207 = call ptr @expert_add_info(ptr noundef %205, ptr noundef %206, ptr noundef @ei_mbim_oversized_string)
  br label %208

208:                                              ; preds = %204, %193
  br label %209

209:                                              ; preds = %208, %190, %187
  ret void
}