; Function Attrs: nounwind uwtable
define internal fastcc void @mbim_dissect_registration_state_info(ptr noundef %0, ptr noundef %1, ptr noundef %2, i32 noundef %3, ptr noundef readonly captures(none) %4) unnamed_addr #0 {
  %6 = alloca i32, align 4
  %7 = alloca i32, align 4
  %8 = alloca i32, align 4
  %9 = alloca i32, align 4
  %10 = alloca i32, align 4
  %11 = alloca i32, align 4
  %12 = tail call i32 @tvb_get_letohl(ptr noundef %0, i32 noundef %3) #10
  %13 = icmp eq i32 %12, 0
  %14 = load i32, ptr @hf_mbim_registration_state_info_nw_error, align 4
  br i1 %13, label %15, label %17

15:                                               ; preds = %5
  %16 = tail call ptr (ptr, i32, ptr, i32, i32, i32, ptr, ...) @proto_tree_add_uint_format_value(ptr noundef %2, i32 noundef %14, ptr noundef %0, i32 noundef %3, i32 noundef 4, i32 noundef 0, ptr noundef nonnull @.str.2501) #10
  br label %19

17:                                               ; preds = %5
  %18 = tail call ptr @proto_tree_add_uint(ptr noundef %2, i32 noundef %14, ptr noundef %0, i32 noundef %3, i32 noundef 4, i32 noundef %12) #10
  br label %19

19:                                               ; preds = %17, %15
  %20 = add i32 %3, 4
  %21 = load i32, ptr @hf_mbim_registration_state_info_register_state, align 4
  %22 = tail call ptr @proto_tree_add_item(ptr noundef %2, i32 noundef %21, ptr noundef %0, i32 noundef %20, i32 noundef 4, i32 noundef -2147483648) #10
  %23 = add i32 %3, 8
  %24 = load i32, ptr @hf_mbim_registration_state_info_register_mode, align 4
  %25 = tail call ptr @proto_tree_add_item(ptr noundef %2, i32 noundef %24, ptr noundef %0, i32 noundef %23, i32 noundef 4, i32 noundef -2147483648) #10
  %26 = add i32 %3, 12
  %27 = load i32, ptr @hf_mbim_registration_state_info_available_data_classes, align 4
  %28 = load i32, ptr @ett_mbim_bitmap, align 4
  %29 = tail call ptr @proto_tree_add_bitmask(ptr noundef %2, ptr noundef %0, i32 noundef %26, i32 noundef %27, i32 noundef %28, ptr noundef nonnull @mbim_data_class_fields, i32 noundef -2147483648) #10
  %30 = add i32 %3, 16
  %31 = load i32, ptr @hf_mbim_registration_state_info_current_cellular_class, align 4
  %32 = tail call ptr @proto_tree_add_item(ptr noundef %2, i32 noundef %31, ptr noundef %0, i32 noundef %30, i32 noundef 4, i32 noundef -2147483648) #10
  %33 = add i32 %3, 20
  %34 = load i32, ptr @hf_mbim_registration_state_info_provider_id_offset, align 4
  %35 = call ptr @proto_tree_add_item_ret_uint(ptr noundef %2, i32 noundef %34, ptr noundef %0, i32 noundef %33, i32 noundef 4, i32 noundef -2147483648, ptr noundef nonnull %6) #10
  %36 = add i32 %3, 24
  %37 = load i32, ptr @hf_mbim_registration_state_info_provider_id_size, align 4
  %38 = call ptr @proto_tree_add_item_ret_uint(ptr noundef %2, i32 noundef %37, ptr noundef %0, i32 noundef %36, i32 noundef 4, i32 noundef -2147483648, ptr noundef nonnull %7) #10
  %39 = add i32 %3, 28
  %40 = load i32, ptr @hf_mbim_registration_state_info_provider_name_offset, align 4
  %41 = call ptr @proto_tree_add_item_ret_uint(ptr noundef %2, i32 noundef %40, ptr noundef %0, i32 noundef %39, i32 noundef 4, i32 noundef -2147483648, ptr noundef nonnull %8) #10
  %42 = add i32 %3, 32
  %43 = load i32, ptr @hf_mbim_registration_state_info_provider_name_size, align 4
  %44 = call ptr @proto_tree_add_item_ret_uint(ptr noundef %2, i32 noundef %43, ptr noundef %0, i32 noundef %42, i32 noundef 4, i32 noundef -2147483648, ptr noundef nonnull %9) #10
  %45 = add i32 %3, 36
  %46 = load i32, ptr @hf_mbim_registration_state_info_roaming_text_offset, align 4
  %47 = call ptr @proto_tree_add_item_ret_uint(ptr noundef %2, i32 noundef %46, ptr noundef %0, i32 noundef %45, i32 noundef 4, i32 noundef -2147483648, ptr noundef nonnull %10) #10
  %48 = add i32 %3, 40
  %49 = load i32, ptr @hf_mbim_registration_state_info_roaming_text_size, align 4
  %50 = call ptr @proto_tree_add_item_ret_uint(ptr noundef %2, i32 noundef %49, ptr noundef %0, i32 noundef %48, i32 noundef 4, i32 noundef -2147483648, ptr noundef nonnull %11) #10
  %51 = add i32 %3, 44
  %52 = load i32, ptr @hf_mbim_registration_state_info_registration_flags, align 4
  %53 = load i32, ptr @ett_mbim_bitmap, align 4
  %54 = call ptr @proto_tree_add_bitmask(ptr noundef %2, ptr noundef %0, i32 noundef %51, i32 noundef %52, i32 noundef %53, ptr noundef nonnull @mbim_registration_state_info_registration_flags_fields, i32 noundef -2147483648) #10
  %55 = getelementptr inbounds nuw i8, ptr %4, i64 24
  %56 = load i32, ptr %55, align 8
  %57 = icmp ugt i32 %56, 1
  br i1 %57, label %62, label %58

58:                                               ; preds = %19
  %59 = icmp eq i32 %56, 0
  %60 = load i32, ptr @preferred_mbim_extended_version, align 4
  %61 = icmp sgt i32 %60, 1
  %or.cond = select i1 %59, i1 %61, i1 false
  br i1 %or.cond, label %62, label %67

62:                                               ; preds = %19, %58
  %63 = add i32 %3, 48
  %64 = load i32, ptr @hf_mbim_registration_state_info_preferred_data_class, align 4
  %65 = load i32, ptr @ett_mbim_bitmap, align 4
  %66 = call ptr @proto_tree_add_bitmask(ptr noundef %2, ptr noundef %0, i32 noundef %63, i32 noundef %64, i32 noundef %65, ptr noundef nonnull @mbim_data_class_fields, i32 noundef -2147483648) #10
  br label %67

67:                                               ; preds = %58, %62
  %68 = load i32, ptr %6, align 4
  %69 = icmp ne i32 %68, 0
  %70 = load i32, ptr %7, align 4
  %71 = icmp ne i32 %70, 0
  %or.cond3 = select i1 %69, i1 %71, i1 false
  br i1 %or.cond3, label %72, label %80

72:                                               ; preds = %67
  %73 = load i32, ptr @hf_mbim_registration_state_info_provider_id, align 4
  %74 = add i32 %68, %3
  %75 = call ptr @proto_tree_add_item(ptr noundef %2, i32 noundef %73, ptr noundef %0, i32 noundef %74, i32 noundef %70, i32 noundef -2147483644) #10
  %76 = load i32, ptr %7, align 4
  %77 = icmp ugt i32 %76, 12
  br i1 %77, label %78, label %80

78:                                               ; preds = %72
  %79 = call ptr @expert_add_info(ptr noundef %1, ptr noundef %75, ptr noundef nonnull @ei_mbim_oversized_string) #10
  br label %80

80:                                               ; preds = %72, %78, %67
  %81 = load i32, ptr %8, align 4
  %82 = icmp ne i32 %81, 0
  %83 = load i32, ptr %9, align 4
  %84 = icmp ne i32 %83, 0
  %or.cond5 = select i1 %82, i1 %84, i1 false
  br i1 %or.cond5, label %85, label %93

85:                                               ; preds = %80
  %86 = load i32, ptr @hf_mbim_registration_state_info_provider_name, align 4
  %87 = add i32 %81, %3
  %88 = call ptr @proto_tree_add_item(ptr noundef %2, i32 noundef %86, ptr noundef %0, i32 noundef %87, i32 noundef %83, i32 noundef -2147483644) #10
  %89 = load i32, ptr %9, align 4
  %90 = icmp ugt i32 %89, 40
  br i1 %90, label %91, label %93

91:                                               ; preds = %85
  %92 = call ptr @expert_add_info(ptr noundef %1, ptr noundef %88, ptr noundef nonnull @ei_mbim_oversized_string) #10
  br label %93

93:                                               ; preds = %85, %91, %80
  %94 = load i32, ptr %10, align 4
  %95 = icmp ne i32 %94, 0
  %96 = load i32, ptr %11, align 4
  %97 = icmp ne i32 %96, 0
  %or.cond7 = select i1 %95, i1 %97, i1 false
  br i1 %or.cond7, label %98, label %106

98:                                               ; preds = %93
  %99 = load i32, ptr @hf_mbim_registration_state_info_roaming_text, align 4
  %100 = add i32 %94, %3
  %101 = call ptr @proto_tree_add_item(ptr noundef %2, i32 noundef %99, ptr noundef %0, i32 noundef %100, i32 noundef %96, i32 noundef -2147483644) #10
  %102 = load i32, ptr %11, align 4
  %103 = icmp ugt i32 %102, 126
  br i1 %103, label %104, label %106

104:                                              ; preds = %98
  %105 = call ptr @expert_add_info(ptr noundef %1, ptr noundef %101, ptr noundef nonnull @ei_mbim_oversized_string) #10
  br label %106

106:                                              ; preds = %98, %104, %93
  ret void
}